

Microchip Technology PIC LITE Macro Assembler V1.33 build 59893 
                                                                                               Mon Jan  4 06:28:49 2021

Microchip Technology Omniscient Code Generator (Lite mode) build 59893
     1                           	processor	16F876A
     2                           	opt	pw 120
     3                           	opt	lm
     4                           	psect	idataBANK1,global,class=CODE,delta=2
     5                           	psect	idataBANK3,global,class=CODE,delta=2
     6                           	psect	cinit,global,class=CODE,merge=1,delta=2
     7                           	psect	dataBANK1,global,class=BANK1,space=1,delta=1
     8                           	psect	dataBANK3,global,class=BANK3,space=1,delta=1
     9                           	psect	inittext,global,class=CODE,delta=2
    10                           	psect	cstackBANK1,global,class=BANK1,space=1,delta=1
    11                           	psect	cstackCOMMON,global,class=COMMON,space=1,delta=1
    12                           	psect	cstackBANK0,global,class=BANK0,space=1,delta=1
    13                           	psect	maintext,global,class=CODE,split=1,delta=2
    14                           	psect	text1,local,class=CODE,merge=1,delta=2
    15                           	psect	text2,local,class=CODE,merge=1,delta=2
    16                           	psect	text3,local,class=CODE,merge=1,delta=2
    17                           	dabs	1,0x7E,2
    18  0000                     	;# 
    19  0001                     	;# 
    20  0002                     	;# 
    21  0003                     	;# 
    22  0004                     	;# 
    23  0005                     	;# 
    24  0006                     	;# 
    25  0007                     	;# 
    26  000A                     	;# 
    27  000B                     	;# 
    28  000C                     	;# 
    29  000D                     	;# 
    30  000E                     	;# 
    31  000E                     	;# 
    32  000F                     	;# 
    33  0010                     	;# 
    34  0011                     	;# 
    35  0012                     	;# 
    36  0013                     	;# 
    37  0014                     	;# 
    38  0015                     	;# 
    39  0015                     	;# 
    40  0016                     	;# 
    41  0017                     	;# 
    42  0018                     	;# 
    43  0019                     	;# 
    44  001A                     	;# 
    45  001B                     	;# 
    46  001B                     	;# 
    47  001C                     	;# 
    48  001D                     	;# 
    49  001E                     	;# 
    50  001F                     	;# 
    51  0081                     	;# 
    52  0085                     	;# 
    53  0086                     	;# 
    54  0087                     	;# 
    55  008C                     	;# 
    56  008D                     	;# 
    57  008E                     	;# 
    58  0091                     	;# 
    59  0092                     	;# 
    60  0093                     	;# 
    61  0094                     	;# 
    62  0098                     	;# 
    63  0099                     	;# 
    64  009C                     	;# 
    65  009D                     	;# 
    66  009E                     	;# 
    67  009F                     	;# 
    68  010C                     	;# 
    69  010D                     	;# 
    70  010E                     	;# 
    71  010F                     	;# 
    72  018C                     	;# 
    73  018D                     	;# 
    74                           
    75                           	psect	idataBANK1
    76  061E                     __pidataBANK1:	
    77                           
    78                           ;initializer for main@F1151
    79  061E  340D               	retlw	13
    80  061F  340A               	retlw	10
    81  0620  3454               	retlw	84
    82  0621  3452               	retlw	82
    83  0622  3459               	retlw	89
    84  0623  3420               	retlw	32
    85  0624  3441               	retlw	65
    86  0625  3447               	retlw	71
    87  0626  3441               	retlw	65
    88  0627  3449               	retlw	73
    89  0628  344E               	retlw	78
    90  0629  340D               	retlw	13
    91  062A  340A               	retlw	10
    92  062B  3400               	retlw	0
    93                           
    94                           ;initializer for main@F1140
    95  062C  3470               	retlw	112
    96  062D  3461               	retlw	97
    97  062E  3473               	retlw	115
    98  062F  3473               	retlw	115
    99  0630  3477               	retlw	119
   100  0631  346F               	retlw	111
   101  0632  3472               	retlw	114
   102  0633  3464               	retlw	100
   103  0634  3400               	retlw	0
   104                           
   105                           ;initializer for main@F1145
   106  0635  3463               	retlw	99
   107  0636  3468               	retlw	104
   108  0637  3461               	retlw	97
   109  0638  346E               	retlw	110
   110  0639  3467               	retlw	103
   111  063A  3465               	retlw	101
   112  063B  3400               	retlw	0
   113                           
   114                           	psect	idataBANK3
   115  06B0                     __pidataBANK3:	
   116                           
   117                           ;initializer for main@F1138
   118  06B0  3445               	retlw	69
   119  06B1  344E               	retlw	78
   120  06B2  3454               	retlw	84
   121  06B3  3445               	retlw	69
   122  06B4  3452               	retlw	82
   123  06B5  3420               	retlw	32
   124  06B6  3454               	retlw	84
   125  06B7  3448               	retlw	72
   126  06B8  3445               	retlw	69
   127  06B9  3420               	retlw	32
   128  06BA  3450               	retlw	80
   129  06BB  3441               	retlw	65
   130  06BC  3453               	retlw	83
   131  06BD  3453               	retlw	83
   132  06BE  3457               	retlw	87
   133  06BF  344F               	retlw	79
   134  06C0  3452               	retlw	82
   135  06C1  3444               	retlw	68
   136  06C2  340D               	retlw	13
   137  06C3  340A               	retlw	10
   138  06C4  3400               	retlw	0
   139                           
   140                           ;initializer for main@F1147
   141  06C5  3445               	retlw	69
   142  06C6  344E               	retlw	78
   143  06C7  3454               	retlw	84
   144  06C8  3445               	retlw	69
   145  06C9  3452               	retlw	82
   146  06CA  3420               	retlw	32
   147  06CB  344E               	retlw	78
   148  06CC  3445               	retlw	69
   149  06CD  3457               	retlw	87
   150  06CE  3420               	retlw	32
   151  06CF  3450               	retlw	80
   152  06D0  3441               	retlw	65
   153  06D1  3453               	retlw	83
   154  06D2  3453               	retlw	83
   155  06D3  3457               	retlw	87
   156  06D4  344F               	retlw	79
   157  06D5  3452               	retlw	82
   158  06D6  3444               	retlw	68
   159  06D7  340D               	retlw	13
   160  06D8  340A               	retlw	10
   161  06D9  3400               	retlw	0
   162                           
   163                           ;initializer for main@F1143
   164  06DA  3450               	retlw	80
   165  06DB  3441               	retlw	65
   166  06DC  3453               	retlw	83
   167  06DD  3453               	retlw	83
   168  06DE  3457               	retlw	87
   169  06DF  344F               	retlw	79
   170  06E0  3452               	retlw	82
   171  06E1  3444               	retlw	68
   172  06E2  3420               	retlw	32
   173  06E3  3443               	retlw	67
   174  06E4  3448               	retlw	72
   175  06E5  3441               	retlw	65
   176  06E6  344E               	retlw	78
   177  06E7  3447               	retlw	71
   178  06E8  3445               	retlw	69
   179  06E9  3444               	retlw	68
   180  06EA  340D               	retlw	13
   181  06EB  340A               	retlw	10
   182  06EC  3400               	retlw	0
   183                           
   184                           ;initializer for main@F1149
   185  06ED  340D               	retlw	13
   186  06EE  340A               	retlw	10
   187  06EF  3441               	retlw	65
   188  06F0  3443               	retlw	67
   189  06F1  3443               	retlw	67
   190  06F2  3445               	retlw	69
   191  06F3  3453               	retlw	83
   192  06F4  3453               	retlw	83
   193  06F5  3420               	retlw	32
   194  06F6  3447               	retlw	71
   195  06F7  3452               	retlw	82
   196  06F8  3441               	retlw	65
   197  06F9  344E               	retlw	78
   198  06FA  3454               	retlw	84
   199  06FB  3445               	retlw	69
   200  06FC  3444               	retlw	68
   201  06FD  340D               	retlw	13
   202  06FE  340A               	retlw	10
   203  06FF  3400               	retlw	0
   204  001A                     _RCREG	set	26
   205  0018                     _RCSTA	set	24
   206  0019                     _TXREG	set	25
   207  0065                     _RCIF	set	101
   208  0099                     _SPBRG	set	153
   209  0098                     _TXSTA	set	152
   210  04C1                     _TRMT	set	1217
   211                           
   212                           ; #config settings
   213  0000                     
   214                           	psect	cinit
   215  07E2                     start_initialization:	
   216  07E2                     __initialization:	
   217                           
   218                           ; Initialize objects allocated to BANK3
   219  07E2  1783               	bsf	3,7	;select IRP bank2
   220  07E3  30E0               	movlw	low (__pdataBANK3+80)
   221  07E4  00FD               	movwf	btemp+-1
   222  07E5  3006               	movlw	high __pidataBANK3
   223  07E6  00FE               	movwf	btemp
   224  07E7  30B0               	movlw	low __pidataBANK3
   225  07E8  00FF               	movwf	btemp+1
   226  07E9  3090               	movlw	low __pdataBANK3
   227  07EA  0084               	movwf	4
   228  07EB  120A  118A  2611  120A  118A  	fcall	init_ram0
   229                           
   230                           ; Initialize objects allocated to BANK1
   231  07F0  1383               	bcf	3,7	;select IRP bank0
   232  07F1  30EB               	movlw	low (__pdataBANK1+30)
   233  07F2  00FD               	movwf	btemp+-1
   234  07F3  3006               	movlw	high __pidataBANK1
   235  07F4  00FE               	movwf	btemp
   236  07F5  301E               	movlw	low __pidataBANK1
   237  07F6  00FF               	movwf	btemp+1
   238  07F7  30CD               	movlw	low __pdataBANK1
   239  07F8  0084               	movwf	4
   240  07F9  120A  118A  2611   	fcall	init_ram0
   241  07FC                     end_of_initialization:	
   242                           ;End of C runtime variable initialization code
   243                           
   244  07FC                     __end_of__initialization:	
   245  07FC  0183               	clrf	3
   246  07FD  120A  118A  2F00   	ljmp	_main	;jump to C main() function
   247                           
   248                           	psect	dataBANK1
   249  00CD                     __pdataBANK1:	
   250  00CD                     main@F1151:	
   251  00CD                     	ds	14
   252  00DB                     main@F1140:	
   253  00DB                     	ds	9
   254  00E4                     main@F1145:	
   255  00E4                     	ds	7
   256                           
   257                           	psect	dataBANK3
   258  0190                     __pdataBANK3:	
   259  0190                     main@F1138:	
   260  0190                     	ds	21
   261  01A5                     main@F1147:	
   262  01A5                     	ds	21
   263  01BA                     main@F1143:	
   264  01BA                     	ds	19
   265  01CD                     main@F1149:	
   266  01CD                     	ds	19
   267                           
   268                           	psect	inittext
   269  060D                     init_fetch0:	
   270                           ;	Called with low address in FSR and high address in W
   271                           
   272  060D  087E               	movf	126,w
   273  060E  008A               	movwf	10
   274  060F  087F               	movf	127,w
   275  0610  0082               	movwf	2
   276  0611                     init_ram0:	
   277                           ;Called with:
   278                           ;	high address of idata address in btemp 
   279                           ;	low address of idata address in btemp+1 
   280                           ;	low address of data in FSR
   281                           ;	high address + 1 of data in btemp-1
   282                           
   283  0611  260D  120A  118A   	fcall	init_fetch0
   284  0614  0080               	movwf	0
   285  0615  0A84               	incf	4,f
   286  0616  0804               	movf	4,w
   287  0617  067D               	xorwf	125,w
   288  0618  1903               	btfsc	3,2
   289  0619  3400               	retlw	0
   290  061A  0AFF               	incf	127,f
   291  061B  1903               	btfsc	3,2
   292  061C  0AFE               	incf	126,f
   293  061D  2E11               	goto	init_ram0
   294                           
   295                           	psect	cstackBANK1
   296  00A0                     __pcstackBANK1:	
   297  00A0                     main@e:	
   298                           
   299                           ; 14 bytes @ 0x0
   300  00A0                     	ds	14
   301  00AE                     main@f:	
   302                           
   303                           ; 7 bytes @ 0xE
   304  00AE                     	ds	7
   305  00B5                     main@c:	
   306                           
   307                           ; 15 bytes @ 0x15
   308  00B5                     	ds	15
   309  00C4                     main@b:	
   310                           
   311                           ; 9 bytes @ 0x24
   312  00C4                     	ds	9
   313                           
   314                           	psect	cstackCOMMON
   315  0070                     __pcstackCOMMON:	
   316  0070                     ?_tx:	
   317  0070                     ??_tx:	
   318                           ; 0 bytes @ 0x0
   319                           
   320  0070                     ?_rx:	
   321                           ; 0 bytes @ 0x0
   322                           
   323  0070                     ??_rx:	
   324                           ; 0 bytes @ 0x0
   325                           
   326  0070                     ?_main:	
   327                           ; 0 bytes @ 0x0
   328                           
   329  0070                     ?_strcmp:	
   330                           ; 0 bytes @ 0x0
   331                           
   332  0070                     strcmp@s2:	
   333                           ; 2 bytes @ 0x0
   334                           
   335                           
   336                           ; 1 bytes @ 0x0
   337  0070                     	ds	1
   338  0071                     tx@i:	
   339                           
   340                           ; 2 bytes @ 0x1
   341  0071                     	ds	1
   342  0072                     ??_strcmp:	
   343  0072                     rx@j:	
   344                           ; 0 bytes @ 0x2
   345                           
   346                           
   347                           ; 2 bytes @ 0x2
   348  0072                     	ds	1
   349  0073                     tx@x:	
   350                           
   351                           ; 1 bytes @ 0x3
   352  0073                     	ds	1
   353  0074                     rx@y:	
   354  0074                     strcmp@r:	
   355                           ; 1 bytes @ 0x4
   356                           
   357                           
   358                           ; 1 bytes @ 0x4
   359  0074                     	ds	1
   360  0075                     strcmp@s1:	
   361                           
   362                           ; 1 bytes @ 0x5
   363  0075                     	ds	1
   364  0076                     ??_main:	
   365                           
   366                           ; 0 bytes @ 0x6
   367  0076                     	ds	4
   368                           
   369                           	psect	cstackBANK0
   370  0020                     __pcstackBANK0:	
   371  0020                     main@a:	
   372                           
   373                           ; 21 bytes @ 0x0
   374  0020                     	ds	21
   375  0035                     main@g:	
   376                           
   377                           ; 21 bytes @ 0x15
   378  0035                     	ds	21
   379  004A                     main@h:	
   380                           
   381                           ; 19 bytes @ 0x2A
   382  004A                     	ds	19
   383  005D                     main@d:	
   384                           
   385                           ; 19 bytes @ 0x3D
   386  005D                     	ds	19
   387                           
   388                           	psect	maintext
   389  0700                     __pmaintext:	
   390 ;;
   391 ;;Main: autosize = 0, tempsize = 4, incstack = 0, save=0
   392 ;;
   393 ;; *************** function _main *****************
   394 ;; Defined at:
   395 ;;		line 47 in file "password2.c"
   396 ;; Parameters:    Size  Location     Type
   397 ;;		None
   398 ;; Auto vars:     Size  Location     Type
   399 ;;  g              21   21[BANK0 ] unsigned char [21]
   400 ;;  a              21    0[BANK0 ] unsigned char [21]
   401 ;;  d              19   61[BANK0 ] unsigned char [19]
   402 ;;  h              19   42[BANK0 ] unsigned char [19]
   403 ;;  c              15   21[BANK1 ] unsigned char [15]
   404 ;;  e              14    0[BANK1 ] unsigned char [14]
   405 ;;  b               9   36[BANK1 ] unsigned char [9]
   406 ;;  f               7   14[BANK1 ] unsigned char [7]
   407 ;;  i               2    0        int 
   408 ;; Return value:  Size  Location     Type
   409 ;;		None               void
   410 ;; Registers used:
   411 ;;		wreg, fsr0l, fsr0h, status,2, status,0, pclath, cstack
   412 ;; Tracked objects:
   413 ;;		On entry : 17F/0
   414 ;;		On exit  : 0/0
   415 ;;		Unchanged: 0/0
   416 ;; Data sizes:     COMMON   BANK0   BANK1   BANK3   BANK2
   417 ;;      Params:         0       0       0       0       0
   418 ;;      Locals:         0      80      45       0       0
   419 ;;      Temps:          4       0       0       0       0
   420 ;;      Totals:         4      80      45       0       0
   421 ;;Total ram usage:      129 bytes
   422 ;; Hardware stack levels required when called:    1
   423 ;; This function calls:
   424 ;;		_rx
   425 ;;		_strcmp
   426 ;;		_tx
   427 ;; This function is called by:
   428 ;;		Startup code after reset
   429 ;; This function uses a non-reentrant model
   430 ;;
   431                           
   432                           
   433                           ;psect for function _main
   434  0700                     _main:	
   435                           
   436                           ;password2.c: 49: TXSTA=0x24;
   437                           
   438                           ;incstack = 0
   439                           ; Regs used in _main: [wreg-fsr0h+status,2+status,0+pclath+cstack]
   440  0700  3024               	movlw	36
   441  0701  1683               	bsf	3,5	;RP0=1, select bank1
   442  0702  1303               	bcf	3,6	;RP1=0, select bank1
   443  0703  0098               	movwf	24	;volatile
   444                           
   445                           ;password2.c: 50: RCSTA=0x90;
   446  0704  3090               	movlw	144
   447  0705  1283               	bcf	3,5	;RP0=0, select bank0
   448  0706  1303               	bcf	3,6	;RP1=0, select bank0
   449  0707  0098               	movwf	24	;volatile
   450                           
   451                           ;password2.c: 51: SPBRG=25;
   452  0708  3019               	movlw	25
   453  0709  1683               	bsf	3,5	;RP0=1, select bank1
   454  070A  1303               	bcf	3,6	;RP1=0, select bank1
   455  070B  0099               	movwf	25	;volatile
   456                           
   457                           ;password2.c: 52: int i;
   458                           ;password2.c: 53: char a[]="ENTER THE PASSWORD\r\n",b[]="password",c[15],h[]="PASSWORD C
      +                          HANGED\r\n",f[]="change",g[]="ENTER NEW PASSWORD\r\n",d[]="\r\nACCESS GRANTED\r\n",e[]="
      +                          \r\nTRY AGAIN\r\n";
   459  070C  3020               	movlw	main@a& (0+255)
   460  070D  0084               	movwf	4
   461  070E  3090               	movlw	low main@F1138
   462  070F  00F6               	movwf	??_main
   463  0710  0804               	movf	4,w
   464  0711  00F7               	movwf	??_main+1
   465  0712  3015               	movlw	21
   466  0713  00F8               	movwf	??_main+2
   467  0714                     u240:	
   468  0714  0876               	movf	??_main,w
   469  0715  0084               	movwf	4
   470  0716  1783               	bsf	3,7	;select IRP bank3
   471  0717  0800               	movf	0,w
   472  0718  00F9               	movwf	??_main+3
   473  0719  0AF6               	incf	??_main,f
   474  071A  0877               	movf	??_main+1,w
   475  071B  0084               	movwf	4
   476  071C  1383               	bcf	3,7	;select IRP bank0
   477  071D  0879               	movf	??_main+3,w
   478  071E  0080               	movwf	0
   479  071F  0AF7               	incf	??_main+1,f
   480  0720  0BF8               	decfsz	??_main+2,f
   481  0721  2F14               	goto	u240
   482  0722  30C4               	movlw	main@b& (0+255)
   483  0723  0084               	movwf	4
   484  0724  30DB               	movlw	low main@F1140
   485  0725  00F6               	movwf	??_main
   486  0726  0804               	movf	4,w
   487  0727  00F7               	movwf	??_main+1
   488  0728  3009               	movlw	9
   489  0729  00F8               	movwf	??_main+2
   490  072A                     u250:	
   491  072A  0876               	movf	??_main,w
   492  072B  0084               	movwf	4
   493  072C  1383               	bcf	3,7	;select IRP bank1
   494  072D  0800               	movf	0,w
   495  072E  00F9               	movwf	??_main+3
   496  072F  0AF6               	incf	??_main,f
   497  0730  0877               	movf	??_main+1,w
   498  0731  0084               	movwf	4
   499  0732  0879               	movf	??_main+3,w
   500  0733  0080               	movwf	0
   501  0734  0AF7               	incf	??_main+1,f
   502  0735  0BF8               	decfsz	??_main+2,f
   503  0736  2F2A               	goto	u250
   504  0737  304A               	movlw	main@h& (0+255)
   505  0738  0084               	movwf	4
   506  0739  30BA               	movlw	low main@F1143
   507  073A  00F6               	movwf	??_main
   508  073B  0804               	movf	4,w
   509  073C  00F7               	movwf	??_main+1
   510  073D  3013               	movlw	19
   511  073E  00F8               	movwf	??_main+2
   512  073F                     u260:	
   513  073F  0876               	movf	??_main,w
   514  0740  0084               	movwf	4
   515  0741  1783               	bsf	3,7	;select IRP bank3
   516  0742  0800               	movf	0,w
   517  0743  00F9               	movwf	??_main+3
   518  0744  0AF6               	incf	??_main,f
   519  0745  0877               	movf	??_main+1,w
   520  0746  0084               	movwf	4
   521  0747  1383               	bcf	3,7	;select IRP bank0
   522  0748  0879               	movf	??_main+3,w
   523  0749  0080               	movwf	0
   524  074A  0AF7               	incf	??_main+1,f
   525  074B  0BF8               	decfsz	??_main+2,f
   526  074C  2F3F               	goto	u260
   527  074D  30AE               	movlw	main@f& (0+255)
   528  074E  0084               	movwf	4
   529  074F  30E4               	movlw	low main@F1145
   530  0750  00F6               	movwf	??_main
   531  0751  0804               	movf	4,w
   532  0752  00F7               	movwf	??_main+1
   533  0753  3007               	movlw	7
   534  0754  00F8               	movwf	??_main+2
   535  0755                     u270:	
   536  0755  0876               	movf	??_main,w
   537  0756  0084               	movwf	4
   538  0757  1383               	bcf	3,7	;select IRP bank1
   539  0758  0800               	movf	0,w
   540  0759  00F9               	movwf	??_main+3
   541  075A  0AF6               	incf	??_main,f
   542  075B  0877               	movf	??_main+1,w
   543  075C  0084               	movwf	4
   544  075D  0879               	movf	??_main+3,w
   545  075E  0080               	movwf	0
   546  075F  0AF7               	incf	??_main+1,f
   547  0760  0BF8               	decfsz	??_main+2,f
   548  0761  2F55               	goto	u270
   549  0762  3035               	movlw	main@g& (0+255)
   550  0763  0084               	movwf	4
   551  0764  30A5               	movlw	low main@F1147
   552  0765  00F6               	movwf	??_main
   553  0766  0804               	movf	4,w
   554  0767  00F7               	movwf	??_main+1
   555  0768  3015               	movlw	21
   556  0769  00F8               	movwf	??_main+2
   557  076A                     u280:	
   558  076A  0876               	movf	??_main,w
   559  076B  0084               	movwf	4
   560  076C  1783               	bsf	3,7	;select IRP bank3
   561  076D  0800               	movf	0,w
   562  076E  00F9               	movwf	??_main+3
   563  076F  0AF6               	incf	??_main,f
   564  0770  0877               	movf	??_main+1,w
   565  0771  0084               	movwf	4
   566  0772  1383               	bcf	3,7	;select IRP bank0
   567  0773  0879               	movf	??_main+3,w
   568  0774  0080               	movwf	0
   569  0775  0AF7               	incf	??_main+1,f
   570  0776  0BF8               	decfsz	??_main+2,f
   571  0777  2F6A               	goto	u280
   572  0778  305D               	movlw	main@d& (0+255)
   573  0779  0084               	movwf	4
   574  077A  30CD               	movlw	low main@F1149
   575  077B  00F6               	movwf	??_main
   576  077C  0804               	movf	4,w
   577  077D  00F7               	movwf	??_main+1
   578  077E  3013               	movlw	19
   579  077F  00F8               	movwf	??_main+2
   580  0780                     u290:	
   581  0780  0876               	movf	??_main,w
   582  0781  0084               	movwf	4
   583  0782  1783               	bsf	3,7	;select IRP bank3
   584  0783  0800               	movf	0,w
   585  0784  00F9               	movwf	??_main+3
   586  0785  0AF6               	incf	??_main,f
   587  0786  0877               	movf	??_main+1,w
   588  0787  0084               	movwf	4
   589  0788  1383               	bcf	3,7	;select IRP bank0
   590  0789  0879               	movf	??_main+3,w
   591  078A  0080               	movwf	0
   592  078B  0AF7               	incf	??_main+1,f
   593  078C  0BF8               	decfsz	??_main+2,f
   594  078D  2F80               	goto	u290
   595  078E  30A0               	movlw	main@e& (0+255)
   596  078F  0084               	movwf	4
   597  0790  30CD               	movlw	low main@F1151
   598  0791  00F6               	movwf	??_main
   599  0792  0804               	movf	4,w
   600  0793  00F7               	movwf	??_main+1
   601  0794  300E               	movlw	14
   602  0795  00F8               	movwf	??_main+2
   603  0796                     u300:	
   604  0796  0876               	movf	??_main,w
   605  0797  0084               	movwf	4
   606  0798  1383               	bcf	3,7	;select IRP bank1
   607  0799  0800               	movf	0,w
   608  079A  00F9               	movwf	??_main+3
   609  079B  0AF6               	incf	??_main,f
   610  079C  0877               	movf	??_main+1,w
   611  079D  0084               	movwf	4
   612  079E  0879               	movf	??_main+3,w
   613  079F  0080               	movwf	0
   614  07A0  0AF7               	incf	??_main+1,f
   615  07A1  0BF8               	decfsz	??_main+2,f
   616  07A2  2F96               	goto	u300
   617  07A3  2FB8               	goto	l641
   618  07A4                     l647:	
   619                           
   620                           ;password2.c: 61: {
   621                           ;password2.c: 62: tx(g);
   622  07A4  3035               	movlw	main@g& (0+255)
   623  07A5  120A  118A  263C  120A  118A  	fcall	_tx
   624                           
   625                           ;password2.c: 63: rx(b);
   626  07AA  30C4               	movlw	main@b& (0+255)
   627  07AB  120A  118A  2682  120A  118A  	fcall	_rx
   628                           
   629                           ;password2.c: 64: tx(h);
   630  07B0  304A               	movlw	main@h& (0+255)
   631  07B1  2FB3               	goto	L1
   632  07B2                     l651:	
   633                           ;password2.c: 65: }
   634                           
   635                           
   636                           ;password2.c: 68: {
   637                           ;password2.c: 69: tx(d);
   638  07B2  305D               	movlw	main@d& (0+255)
   639  07B3                     L1:	
   640  07B3  120A  118A  263C  120A  118A  	fcall	_tx
   641  07B8                     l641:	
   642                           ;password2.c: 54: while(1)
   643                           
   644                           ;password2.c: 70: }
   645                           
   646                           
   647                           ;password2.c: 55: {
   648                           ;password2.c: 56: tx(a);
   649  07B8  3020               	movlw	main@a& (0+255)
   650  07B9  120A  118A  263C  120A  118A  	fcall	_tx
   651                           
   652                           ;password2.c: 57: rx(c);
   653  07BE  30B5               	movlw	main@c& (0+255)
   654  07BF  120A  118A  2682  120A  118A  	fcall	_rx
   655                           
   656                           ;password2.c: 60: if(strcmp(f,c)==0)
   657  07C4  30B5               	movlw	main@c& (0+255)
   658  07C5  00F6               	movwf	??_main
   659  07C6  0876               	movf	??_main,w
   660  07C7  00F0               	movwf	strcmp@s2
   661  07C8  30AE               	movlw	main@f& (0+255)
   662  07C9  120A  118A  265D  120A  118A  	fcall	_strcmp
   663  07CE  0871               	movf	?_strcmp+1,w
   664  07CF  0470               	iorwf	?_strcmp,w
   665  07D0  1903               	btfsc	3,2
   666  07D1  2FA4               	goto	l647
   667                           
   668                           ;password2.c: 67: else if(strcmp(b,c)==0)
   669  07D2  30B5               	movlw	main@c& (0+255)
   670  07D3  00F6               	movwf	??_main
   671  07D4  0876               	movf	??_main,w
   672  07D5  00F0               	movwf	strcmp@s2
   673  07D6  30C4               	movlw	main@b& (0+255)
   674  07D7  120A  118A  265D  120A  118A  	fcall	_strcmp
   675  07DC  0871               	movf	?_strcmp+1,w
   676  07DD  0470               	iorwf	?_strcmp,w
   677  07DE  1903               	btfsc	3,2
   678  07DF  2FB2               	goto	l651
   679                           
   680                           ;password2.c: 72: else
   681                           ;password2.c: 73: {
   682                           ;password2.c: 74: tx(e);
   683  07E0  30A0               	movlw	main@e& (0+255)
   684  07E1  2FB3               	goto	L1
   685  07E2                     __end_of_main:	
   686                           
   687                           	psect	text1
   688  063C                     __ptext1:	
   689 ;; *************** function _tx *****************
   690 ;; Defined at:
   691 ;;		line 18 in file "password2.c"
   692 ;; Parameters:    Size  Location     Type
   693 ;;  x               1    wreg     PTR unsigned char 
   694 ;;		 -> main@e(14), main@d(19), main@g(21), main@h(19), 
   695 ;;		 -> main@a(21), 
   696 ;; Auto vars:     Size  Location     Type
   697 ;;  x               1    3[COMMON] PTR unsigned char 
   698 ;;		 -> main@e(14), main@d(19), main@g(21), main@h(19), 
   699 ;;		 -> main@a(21), 
   700 ;;  i               2    1[COMMON] int 
   701 ;; Return value:  Size  Location     Type
   702 ;;		None               void
   703 ;; Registers used:
   704 ;;		wreg, fsr0l, fsr0h, status,2, status,0
   705 ;; Tracked objects:
   706 ;;		On entry : 0/0
   707 ;;		On exit  : 0/0
   708 ;;		Unchanged: 0/0
   709 ;; Data sizes:     COMMON   BANK0   BANK1   BANK3   BANK2
   710 ;;      Params:         0       0       0       0       0
   711 ;;      Locals:         3       0       0       0       0
   712 ;;      Temps:          1       0       0       0       0
   713 ;;      Totals:         4       0       0       0       0
   714 ;;Total ram usage:        4 bytes
   715 ;; Hardware stack levels used:    1
   716 ;; This function calls:
   717 ;;		Nothing
   718 ;; This function is called by:
   719 ;;		_main
   720 ;; This function uses a non-reentrant model
   721 ;;
   722                           
   723                           
   724                           ;psect for function _tx
   725  063C                     _tx:	
   726                           
   727                           ;incstack = 0
   728                           ; Regs used in _tx: [wreg-fsr0h+status,2+status,0]
   729                           ;tx@x stored from wreg
   730  063C  00F3               	movwf	tx@x
   731                           
   732                           ;password2.c: 20: int i;
   733                           ;password2.c: 21: for(i=0;x[i]!='\0';i++)
   734  063D  01F1               	clrf	tx@i
   735  063E  01F2               	clrf	tx@i+1
   736  063F                     l597:	
   737  063F  0871               	movf	tx@i,w
   738  0640  0773               	addwf	tx@x,w
   739  0641  00F0               	movwf	??_tx
   740  0642  0870               	movf	??_tx,w
   741  0643  0084               	movwf	4
   742  0644  1383               	bcf	3,7	;select IRP bank0
   743  0645  0880               	movf	0,f
   744  0646  1903               	btfsc	3,2
   745  0647  0008               	return
   746                           
   747                           ;password2.c: 22: {
   748                           ;password2.c: 23: TXREG=x[i];
   749  0648  0871               	movf	tx@i,w
   750  0649  0773               	addwf	tx@x,w
   751  064A  00F0               	movwf	??_tx
   752  064B  0870               	movf	??_tx,w
   753  064C  0084               	movwf	4
   754  064D  1383               	bcf	3,7	;select IRP bank0
   755  064E  0800               	movf	0,w
   756  064F  1283               	bcf	3,5	;RP0=0, select bank0
   757  0650  1303               	bcf	3,6	;RP1=0, select bank0
   758  0651  0099               	movwf	25	;volatile
   759  0652                     l21:	
   760                           ;password2.c: 24: while(TRMT==0);
   761                           
   762  0652  1683               	bsf	3,5	;RP0=1, select bank1
   763  0653  1303               	bcf	3,6	;RP1=0, select bank1
   764  0654  1C98               	btfss	24,1	;volatile
   765  0655  2E52               	goto	l21
   766  0656  3001               	movlw	1
   767  0657  07F1               	addwf	tx@i,f
   768  0658  1803               	skipnc
   769  0659  0AF2               	incf	tx@i+1,f
   770  065A  3000               	movlw	0
   771  065B  07F2               	addwf	tx@i+1,f
   772  065C  2E3F               	goto	l597
   773  065D                     __end_of_tx:	
   774                           
   775                           	psect	text2
   776  065D                     __ptext2:	
   777 ;; *************** function _strcmp *****************
   778 ;; Defined at:
   779 ;;		line 33 in file "/opt/microchip/xc8/v1.33/sources/common/strcmp.c"
   780 ;; Parameters:    Size  Location     Type
   781 ;;  s1              1    wreg     PTR const unsigned char 
   782 ;;		 -> main@f(7), main@b(9), 
   783 ;;  s2              1    0[COMMON] PTR const unsigned char 
   784 ;;		 -> main@c(15), 
   785 ;; Auto vars:     Size  Location     Type
   786 ;;  s1              1    5[COMMON] PTR const unsigned char 
   787 ;;		 -> main@f(7), main@b(9), 
   788 ;;  r               1    4[COMMON] char 
   789 ;; Return value:  Size  Location     Type
   790 ;;                  2    0[COMMON] int 
   791 ;; Registers used:
   792 ;;		wreg, fsr0l, fsr0h, status,2, status,0
   793 ;; Tracked objects:
   794 ;;		On entry : 0/0
   795 ;;		On exit  : 0/0
   796 ;;		Unchanged: 0/0
   797 ;; Data sizes:     COMMON   BANK0   BANK1   BANK3   BANK2
   798 ;;      Params:         2       0       0       0       0
   799 ;;      Locals:         2       0       0       0       0
   800 ;;      Temps:          2       0       0       0       0
   801 ;;      Totals:         6       0       0       0       0
   802 ;;Total ram usage:        6 bytes
   803 ;; Hardware stack levels used:    1
   804 ;; This function calls:
   805 ;;		Nothing
   806 ;; This function is called by:
   807 ;;		_main
   808 ;; This function uses a non-reentrant model
   809 ;;
   810                           
   811                           
   812                           ;psect for function _strcmp
   813  065D                     _strcmp:	
   814                           
   815                           ;incstack = 0
   816                           ; Regs used in _strcmp: [wreg-fsr0h+status,2+status,0]
   817                           ;strcmp@s1 stored from wreg
   818  065D  00F5               	movwf	strcmp@s1
   819  065E  2E67               	goto	l617
   820  065F                     l613:	
   821  065F  3001               	movlw	1
   822  0660  00F2               	movwf	??_strcmp
   823  0661  0872               	movf	??_strcmp,w
   824  0662  07F5               	addwf	strcmp@s1,f
   825  0663  3001               	movlw	1
   826  0664  00F2               	movwf	??_strcmp
   827  0665  0872               	movf	??_strcmp,w
   828  0666  07F0               	addwf	strcmp@s2,f
   829  0667                     l617:	
   830  0667  0875               	movf	strcmp@s1,w
   831  0668  0084               	movwf	4
   832  0669  1383               	bcf	3,7	;select IRP bank0
   833  066A  0800               	movf	0,w
   834  066B  00F2               	movwf	??_strcmp
   835  066C  0870               	movf	strcmp@s2,w
   836  066D  0084               	movwf	4
   837  066E  0300               	decf	0,w
   838  066F  3AFF               	xorlw	255
   839  0670  0772               	addwf	??_strcmp,w
   840  0671  00F3               	movwf	??_strcmp+1
   841  0672  0873               	movf	??_strcmp+1,w
   842  0673  00F4               	movwf	strcmp@r
   843  0674  08F4               	movf	strcmp@r,f
   844  0675  1D03               	skipz
   845  0676  2E7C               	goto	l621
   846  0677  0875               	movf	strcmp@s1,w
   847  0678  0084               	movwf	4
   848  0679  0880               	movf	0,f
   849  067A  1D03               	skipz
   850  067B  2E5F               	goto	l613
   851  067C                     l621:	
   852  067C  0874               	movf	strcmp@r,w
   853  067D  00F0               	movwf	?_strcmp
   854  067E  01F1               	clrf	?_strcmp+1
   855  067F  1BF0               	btfsc	?_strcmp,7
   856  0680  03F1               	decf	?_strcmp+1,f
   857  0681  0008               	return
   858  0682                     __end_of_strcmp:	
   859                           
   860                           	psect	text3
   861  0682                     __ptext3:	
   862 ;; *************** function _rx *****************
   863 ;; Defined at:
   864 ;;		line 28 in file "password2.c"
   865 ;; Parameters:    Size  Location     Type
   866 ;;  y               1    wreg     PTR unsigned char 
   867 ;;		 -> main@c(15), main@b(9), 
   868 ;; Auto vars:     Size  Location     Type
   869 ;;  y               1    4[COMMON] PTR unsigned char 
   870 ;;		 -> main@c(15), main@b(9), 
   871 ;;  j               2    2[COMMON] int 
   872 ;; Return value:  Size  Location     Type
   873 ;;		None               void
   874 ;; Registers used:
   875 ;;		wreg, fsr0l, fsr0h, status,2, status,0
   876 ;; Tracked objects:
   877 ;;		On entry : 0/0
   878 ;;		On exit  : 0/0
   879 ;;		Unchanged: 0/0
   880 ;; Data sizes:     COMMON   BANK0   BANK1   BANK3   BANK2
   881 ;;      Params:         0       0       0       0       0
   882 ;;      Locals:         3       0       0       0       0
   883 ;;      Temps:          2       0       0       0       0
   884 ;;      Totals:         5       0       0       0       0
   885 ;;Total ram usage:        5 bytes
   886 ;; Hardware stack levels used:    1
   887 ;; This function calls:
   888 ;;		Nothing
   889 ;; This function is called by:
   890 ;;		_main
   891 ;; This function uses a non-reentrant model
   892 ;;
   893                           
   894                           
   895                           ;psect for function _rx
   896  0682                     _rx:	
   897                           
   898                           ;incstack = 0
   899                           ; Regs used in _rx: [wreg-fsr0h+status,2+status,0]
   900                           ;rx@y stored from wreg
   901  0682  00F4               	movwf	rx@y
   902                           
   903                           ;password2.c: 30: int j;
   904                           ;password2.c: 31: for(j=0;;j++)
   905  0683  01F2               	clrf	rx@j
   906  0684  01F3               	clrf	rx@j+1
   907  0685                     l29:	
   908                           ;password2.c: 32: {
   909                           ;password2.c: 33: while(RCIF==0);
   910                           
   911  0685  1283               	bcf	3,5	;RP0=0, select bank0
   912  0686  1303               	bcf	3,6	;RP1=0, select bank0
   913  0687  1E8C               	btfss	12,5	;volatile
   914  0688  2E85               	goto	l29
   915                           
   916                           ;password2.c: 34: y[j]=RCREG;
   917  0689  081A               	movf	26,w	;volatile
   918  068A  00F0               	movwf	??_rx
   919  068B  0872               	movf	rx@j,w
   920  068C  0774               	addwf	rx@y,w
   921  068D  00F1               	movwf	??_rx+1
   922  068E  0871               	movf	??_rx+1,w
   923  068F  0084               	movwf	4
   924  0690  0870               	movf	??_rx,w
   925  0691  1383               	bcf	3,7	;select IRP bank0
   926  0692  0080               	movwf	0
   927                           
   928                           ;password2.c: 35: if(y[j]=='\r')
   929  0693  0872               	movf	rx@j,w
   930  0694  0774               	addwf	rx@y,w
   931  0695  00F0               	movwf	??_rx
   932  0696  0870               	movf	??_rx,w
   933  0697  0084               	movwf	4
   934  0698  0800               	movf	0,w
   935  0699  3A0D               	xorlw	13
   936  069A  1D03               	skipz
   937  069B  2EA3               	goto	l607
   938                           
   939                           ;password2.c: 36: {
   940                           ;password2.c: 37: y[j]='\0';
   941  069C  0872               	movf	rx@j,w
   942  069D  0774               	addwf	rx@y,w
   943  069E  00F0               	movwf	??_rx
   944  069F  0870               	movf	??_rx,w
   945  06A0  0084               	movwf	4
   946  06A1  0180               	clrf	0
   947                           
   948                           ;password2.c: 38: break;
   949  06A2  0008               	return
   950  06A3                     l607:	
   951                           ;password2.c: 39: }
   952                           
   953                           
   954                           ;password2.c: 40: else
   955                           ;password2.c: 41: {
   956                           ;password2.c: 42: TXREG='*';
   957  06A3  302A               	movlw	42
   958  06A4  0099               	movwf	25	;volatile
   959  06A5                     l35:	
   960                           ;password2.c: 43: while(TRMT==0);
   961                           
   962  06A5  1683               	bsf	3,5	;RP0=1, select bank1
   963  06A6  1303               	bcf	3,6	;RP1=0, select bank1
   964  06A7  1C98               	btfss	24,1	;volatile
   965  06A8  2EA5               	goto	l35
   966  06A9  3001               	movlw	1
   967  06AA  07F2               	addwf	rx@j,f
   968  06AB  1803               	skipnc
   969  06AC  0AF3               	incf	rx@j+1,f
   970  06AD  3000               	movlw	0
   971  06AE  07F3               	addwf	rx@j+1,f
   972  06AF  2E85               	goto	l29
   973  06B0                     __end_of_rx:	
   974  007E                     btemp	set	126	;btemp
   975  007E                     wtemp	set	126
   976  007E                     wtemp0	set	126
   977  0080                     wtemp1	set	128
   978  0082                     wtemp2	set	130
   979  0084                     wtemp3	set	132
   980  0086                     wtemp4	set	134
   981  0088                     wtemp5	set	136
   982  007F                     wtemp6	set	127
   983  007E                     ttemp	set	126
   984  007E                     ttemp0	set	126
   985  0081                     ttemp1	set	129
   986  0084                     ttemp2	set	132
   987  0087                     ttemp3	set	135
   988  007F                     ttemp4	set	127
   989  007E                     ltemp	set	126
   990  007E                     ltemp0	set	126
   991  0082                     ltemp1	set	130
   992  0086                     ltemp2	set	134
   993  0080                     ltemp3	set	128


Data Sizes:
    Strings     0
    Constant    0
    Data        110
    BSS         0
    Persistent  0
    Stack       0

Auto Spaces:
    Space          Size  Autos    Used
    COMMON           14     10      10
    BANK0            80     80      80
    BANK1            80     45      75
    BANK3            96      0      80
    BANK2            96      0       0

Pointer List with Targets:

    strcmp@s2	PTR const unsigned char  size(1) Largest target is 15
		 -> main@c(BANK1[15]), 

    strcmp@s1	PTR const unsigned char  size(1) Largest target is 9
		 -> main@f(BANK1[7]), main@b(BANK1[9]), 

    rx@y	PTR unsigned char  size(1) Largest target is 15
		 -> main@c(BANK1[15]), main@b(BANK1[9]), 

    tx@x	PTR unsigned char  size(1) Largest target is 21
		 -> main@e(BANK1[14]), main@d(BANK0[19]), main@g(BANK0[21]), main@h(BANK0[19]), 
		 -> main@a(BANK0[21]), 


Critical Paths under _main in COMMON

    _main->_strcmp

Critical Paths under _main in BANK0

    None.

Critical Paths under _main in BANK1

    None.

Critical Paths under _main in BANK3

    None.

Critical Paths under _main in BANK2

    None.

Call Graph Tables:

 ---------------------------------------------------------------------------------
 (Depth) Function   	        Calls       Base Space   Used Autos Params    Refs
 ---------------------------------------------------------------------------------
 (0) _main                                               131   131      0     938
                                              6 COMMON     4     4      0
                                              0 BANK0     80    80      0
                                              0 BANK1     45    45      0
                                 _rx
                             _strcmp
                                 _tx
 ---------------------------------------------------------------------------------
 (1) _tx                                                   4     4      0     225
                                              0 COMMON     4     4      0
 ---------------------------------------------------------------------------------
 (1) _strcmp                                               6     4      2     251
                                              0 COMMON     6     4      2
 ---------------------------------------------------------------------------------
 (1) _rx                                                   5     5      0     188
                                              0 COMMON     5     5      0
 ---------------------------------------------------------------------------------
 Estimated maximum stack depth 1
 ---------------------------------------------------------------------------------

 Call Graph Graphs:

 _main (ROOT)
   _rx
   _strcmp
   _tx

 Address spaces:
Name               Size   Autos  Total    Cost      Usage
BANK3               60      0      50       9       83.3%
BITBANK3            60      0       0       8        0.0%
SFR3                 0      0       0       4        0.0%
BITSFR3              0      0       0       4        0.0%
BANK2               60      0       0      11        0.0%
BITBANK2            60      0       0      10        0.0%
SFR2                 0      0       0       5        0.0%
BITSFR2              0      0       0       5        0.0%
BANK1               50     2D      4B       7       93.8%
BITBANK1            50      0       0       6        0.0%
SFR1                 0      0       0       2        0.0%
BITSFR1              0      0       0       2        0.0%
BANK0               50     50      50       5      100.0%
BITBANK0            50      0       0       4        0.0%
SFR0                 0      0       0       1        0.0%
BITSFR0              0      0       0       1        0.0%
COMMON               E      A       A       1       71.4%
BITCOMMON            E      0       0       0        0.0%
CODE                 0      0       0       0        0.0%
DATA                 0      0      F5      12        0.0%
ABS                  0      0      F5       3        0.0%
NULL                 0      0       0       0        0.0%
STACK                0      0       0       2        0.0%
EEDATA             100      0       0       0        0.0%


Microchip Technology PIC Macro Assembler V1.33 build 59893 
Symbol Table                                                                                   Mon Jan  4 06:28:49 2021

                      pc 0002              __CFG_CP$OFF 0000                       l21 0652  
                     l35 06A5                       l29 0685                       _rx 0682  
                     _tx 063C                       fsr 0004                      l621 067C  
                    l613 065F                      l607 06A3                      ?_rx 0070  
                    l617 0667                      l641 07B8                      l651 07B2  
                    ?_tx 0070                      l647 07A4                      l597 063F  
                    u300 0796                      u240 0714                      u250 072A  
                    u260 073F                      u270 0755                      u280 076A  
                    u290 0780             __CFG_CPD$OFF 0000                      fsr0 0004  
                    indf 0000                      rx@j 0072                      rx@y 0074  
                    tx@i 0071                      tx@x 0073             __CFG_FOSC$XT 0000  
                   ??_rx 0070                     ??_tx 0070             __CFG_LVP$OFF 0000  
                   _RCIF 0065                     _TRMT 04C1             __CFG_WRT$OFF 0000  
                   _main 0700                     btemp 007E                     ltemp 007E  
                   start 0000                     ttemp 007E                     wtemp 007E  
                  ?_main 0070            __CFG_WDTE$OFF 0000                    _RCREG 001A  
                  _RCSTA 0018                    _SPBRG 0099                    _TXREG 0019  
                  _TXSTA 0098                    main@a 0020                    main@b 00C4  
                  main@c 00B5                    main@d 005D                    main@e 00A0  
                  main@f 00AE                    main@g 0035                    main@h 004A  
         __CFG_BOREN$OFF 0000                    pclath 000A                    ltemp0 007E  
                  ltemp1 0082                    ltemp2 0086                    ltemp3 0080  
                  ttemp0 007E                    ttemp1 0081                    ttemp2 0084  
                  ttemp3 0087                    ttemp4 007F                    status 0003  
                  wtemp0 007E                    wtemp1 0080                    wtemp2 0082  
                  wtemp3 0084                    wtemp4 0086                    wtemp5 0088  
                  wtemp6 007F          __initialization 07E2             __end_of_main 07E2  
                 ??_main 0076           __CFG_PWRTE$OFF 0000                   _strcmp 065D  
__end_of__initialization 07FC           __pcstackCOMMON 0070             __pidataBANK1 061E  
           __pidataBANK3 06B0               __end_of_rx 06B0               __end_of_tx 065D  
             __pmaintext 0700                  ?_strcmp 0070                  __ptext1 063C  
                __ptext2 065D                  __ptext3 0682          __size_of_strcmp 0025  
   end_of_initialization 07FC                  strcmp@r 0074           __end_of_strcmp 0682  
    start_initialization 07E2               init_fetch0 060D              __pdataBANK1 00CD  
            __pdataBANK3 0190                 ??_strcmp 0072                ___latbits 0002  
          __pcstackBANK0 0020            __pcstackBANK1 00A0              __size_of_rx 002E  
            __size_of_tx 0021                main@F1140 00DB                main@F1143 01BA  
              main@F1151 00CD                main@F1145 00E4                main@F1138 0190  
              main@F1147 01A5                main@F1149 01CD            __size_of_main 00E2  
               init_ram0 0611                 strcmp@s1 0075                 strcmp@s2 0070  
